target datalayout = "e-m:e-p270:32:32-p271:32:32-p272:64:64-i64:64-i128:128-f80:128-n8:16:32:64-S128"
target triple = "x86_64-pc-linux-gnu"

%struct.WebPMux = type { ptr, ptr, ptr, ptr, ptr, ptr, ptr, i32, i32 }

; Function Attrs: nounwind uwtable
define hidden ptr @MuxGetChunkListFromId(ptr noundef %0, i32 noundef %1) #0 {
  %3 = alloca ptr, align 8
  %4 = alloca ptr, align 8
  %5 = alloca i32, align 4
  store ptr %0, ptr %4, align 8, !tbaa !62
  store i32 %1, ptr %5, align 4, !tbaa !19
  %6 = load i32, ptr %5, align 4, !tbaa !19
  switch i32 %6, label %22 [
    i32 0, label %7
    i32 1, label %10
    i32 2, label %13
    i32 7, label %16
    i32 8, label %19
  ]

7:                                                ; preds = %2
  %8 = load ptr, ptr %4, align 8, !tbaa !62
  %9 = getelementptr inbounds nuw %struct.WebPMux, ptr %8, i32 0, i32 5
  store ptr %9, ptr %3, align 8
  br label %25

10:                                               ; preds = %2
  %11 = load ptr, ptr %4, align 8, !tbaa !62
  %12 = getelementptr inbounds nuw %struct.WebPMux, ptr %11, i32 0, i32 1
  store ptr %12, ptr %3, align 8
  br label %25

13:                                               ; preds = %2
  %14 = load ptr, ptr %4, align 8, !tbaa !62
  %15 = getelementptr inbounds nuw %struct.WebPMux, ptr %14, i32 0, i32 4
  store ptr %15, ptr %3, align 8
  br label %25

16:                                               ; preds = %2
  %17 = load ptr, ptr %4, align 8, !tbaa !62
  %18 = getelementptr inbounds nuw %struct.WebPMux, ptr %17, i32 0, i32 2
  store ptr %18, ptr %3, align 8
  br label %25

19:                                               ; preds = %2
  %20 = load ptr, ptr %4, align 8, !tbaa !62
  %21 = getelementptr inbounds nuw %struct.WebPMux, ptr %20, i32 0, i32 3
  store ptr %21, ptr %3, align 8
  br label %25

22:                                               ; preds = %2
  %23 = load ptr, ptr %4, align 8, !tbaa !62
  %24 = getelementptr inbounds nuw %struct.WebPMux, ptr %23, i32 0, i32 6
  store ptr %24, ptr %3, align 8
  br label %25

25:                                               ; preds = %22, %19, %16, %13, %10, %7
  %26 = load ptr, ptr %3, align 8
  ret ptr %26
}