; Function Attrs: mustprogress nofree norecurse nosync nounwind willreturn memory(none) uwtable
define hidden nonnull ptr @MuxGetChunkListFromId(ptr noundef readnone captures(ret: address, provenance) %0, i32 noundef %1) local_unnamed_addr #0 {
  %3 = icmp ult i32 %1, 9
  br i1 %3, label %switch.lookup, label %5

switch.lookup:                                    ; preds = %2
  %4 = zext nneg i32 %1 to i64
  %switch.gep = getelementptr inbounds nuw [9 x i64], ptr @switch.table.MuxGetChunkListFromId, i64 0, i64 %4
  %switch.load = load i64, ptr %switch.gep, align 8
  br label %5

5:                                                ; preds = %2, %switch.lookup
  %.sink = phi i64 [ %switch.load, %switch.lookup ], [ 48, %2 ]
  %6 = getelementptr inbounds nuw i8, ptr %0, i64 %.sink
  ret ptr %6
}